; Function Attrs: mustprogress uwtable
define void @_Z26ulocimp_getKeywordValue_77PKcSt17basic_string_viewIcSt11char_traitsIcEER10UErrorCode(ptr dead_on_unwind noalias writable sret(%"class.icu_77::CharString") align 8 %0, ptr noundef %1, i64 %2, ptr %3, ptr noundef nonnull align 4 dereferenceable(4) %4) local_unnamed_addr #1 personality ptr @__gxx_personality_v0 {
  %6 = alloca %"class.icu_77::CharStringByteSink", align 8
  tail call void @llvm.experimental.noalias.scope.decl(metadata !39)
  %7 = load i32, ptr %4, align 4, !tbaa !13, !noalias !39
  %8 = icmp slt i32 %7, 1
  tail call void @_ZN6icu_7715MaybeStackArrayIcLi40EEC1Ev(ptr noundef nonnull align 8 dereferenceable(60) %0)
  %9 = getelementptr inbounds nuw i8, ptr %0, i64 56
  store i32 0, ptr %9, align 8, !tbaa !18, !alias.scope !39
  %10 = load ptr, ptr %0, align 8, !tbaa !3, !alias.scope !39
  store i8 0, ptr %10, align 1, !tbaa !20
  br i1 %8, label %11, label %"_ZN6icu_7712ByteSinkUtil23viaByteSinkToCharStringIZ26ulocimp_getKeywordValue_77PKcSt17basic_string_viewIcSt11char_traitsIcEER10UErrorCodeE3$_0vEENS_10CharStringEOT_S9_.exit"

11:                                               ; preds = %5
  call void @llvm.lifetime.start.p0(i64 16, ptr nonnull %6) #20, !noalias !39
  invoke void @_ZN6icu_7718CharStringByteSinkC1EPNS_10CharStringE(ptr noundef nonnull align 8 dereferenceable(16) %6, ptr noundef nonnull align 8 %0)
          to label %12 unwind label %13

12:                                               ; preds = %11
  invoke void @_Z26ulocimp_getKeywordValue_77PKcSt17basic_string_viewIcSt11char_traitsIcEERN6icu_778ByteSinkER10UErrorCode(ptr noundef %1, i64 %2, ptr %3, ptr noundef nonnull align 8 dereferenceable(8) %6, ptr noundef nonnull align 4 dereferenceable(4) %4)
          to label %"_ZZ26ulocimp_getKeywordValue_77PKcSt17basic_string_viewIcSt11char_traitsIcEER10UErrorCodeENK3$_0clERN6icu_778ByteSinkES6_.exit.i" unwind label %15

"_ZZ26ulocimp_getKeywordValue_77PKcSt17basic_string_viewIcSt11char_traitsIcEER10UErrorCodeENK3$_0clERN6icu_778ByteSinkES6_.exit.i": ; preds = %12
  call void @_ZN6icu_7718CharStringByteSinkD1Ev(ptr noundef nonnull align 8 dereferenceable(16) %6) #20
  call void @llvm.lifetime.end.p0(i64 16, ptr nonnull %6) #20, !noalias !39
  br label %"_ZN6icu_7712ByteSinkUtil23viaByteSinkToCharStringIZ26ulocimp_getKeywordValue_77PKcSt17basic_string_viewIcSt11char_traitsIcEER10UErrorCodeE3$_0vEENS_10CharStringEOT_S9_.exit"

13:                                               ; preds = %11
  %14 = landingpad { ptr, i32 }
          cleanup
  br label %17

15:                                               ; preds = %12
  %16 = landingpad { ptr, i32 }
          cleanup
  call void @_ZN6icu_7718CharStringByteSinkD1Ev(ptr noundef nonnull align 8 dereferenceable(16) %6) #20
  br label %17

17:                                               ; preds = %15, %13
  %.pn.i = phi { ptr, i32 } [ %16, %15 ], [ %14, %13 ]
  call void @llvm.lifetime.end.p0(i64 16, ptr nonnull %6) #20, !noalias !39
  call void @_ZN6icu_7715MaybeStackArrayIcLi40EED1Ev(ptr noundef nonnull align 8 dereferenceable(60) %0) #20
  resume { ptr, i32 } %.pn.i

"_ZN6icu_7712ByteSinkUtil23viaByteSinkToCharStringIZ26ulocimp_getKeywordValue_77PKcSt17basic_string_viewIcSt11char_traitsIcEER10UErrorCodeE3$_0vEENS_10CharStringEOT_S9_.exit": ; preds = %5, %"_ZZ26ulocimp_getKeywordValue_77PKcSt17basic_string_viewIcSt11char_traitsIcEER10UErrorCodeENK3$_0clERN6icu_778ByteSinkES6_.exit.i"
  ret void
}